; ModuleID = '41/10.cpp'
source_filename = "41/10.cpp"
target datalayout = "e-m:e-p270:32:32-p271:32:32-p272:64:64-i64:64-f80:128-n8:16:32:64-S128"
target triple = "x86_64-pc-linux-gnu"

%"class.std::ios_base::Init" = type { i8 }
%"class.std::basic_ostream" = type { i32 (...)**, %"class.std::basic_ios" }
%"class.std::basic_ios" = type { %"class.std::ios_base", %"class.std::basic_ostream"*, i8, i8, %"class.std::basic_streambuf"*, %"class.std::ctype"*, %"class.std::num_put"*, %"class.std::num_get"* }
%"class.std::ios_base" = type { i32 (...)**, i64, i64, i32, i32, i32, %"struct.std::ios_base::_Callback_list"*, %"struct.std::ios_base::_Words", [8 x %"struct.std::ios_base::_Words"], i32, %"struct.std::ios_base::_Words"*, %"class.std::locale" }
%"struct.std::ios_base::_Callback_list" = type { %"struct.std::ios_base::_Callback_list"*, void (i32, %"class.std::ios_base"*, i32)*, i32, i32 }
%"struct.std::ios_base::_Words" = type { i8*, i64 }
%"class.std::locale" = type { %"class.std::locale::_Impl"* }
%"class.std::locale::_Impl" = type { i32, %"class.std::locale::facet"**, i64, %"class.std::locale::facet"**, i8** }
%"class.std::locale::facet" = type <{ i32 (...)**, i32, [4 x i8] }>
%"class.std::basic_streambuf" = type { i32 (...)**, i8*, i8*, i8*, i8*, i8*, i8*, %"class.std::locale" }
%"class.std::ctype" = type <{ %"class.std::locale::facet.base", [4 x i8], %struct.__locale_struct*, i8, [7 x i8], i32*, i32*, i16*, i8, [256 x i8], [256 x i8], i8, [6 x i8] }>
%"class.std::locale::facet.base" = type <{ i32 (...)**, i32 }>
%struct.__locale_struct = type { [13 x %struct.__locale_data*], i16*, i32*, i32*, [13 x i8*] }
%struct.__locale_data = type opaque
%"class.std::num_put" = type { %"class.std::locale::facet.base", [4 x i8] }
%"class.std::num_get" = type { %"class.std::locale::facet.base", [4 x i8] }

@_ZStL8__ioinit = internal global %"class.std::ios_base::Init" zeroinitializer, align 1
@__dso_handle = external hidden global i8
@_ZSt4cout = external dso_local global %"class.std::basic_ostream", align 8
@.str = private unnamed_addr constant [2 x i8] c" \00", align 1
@llvm.global_ctors = appending global [1 x { i32, void ()*, i8* }] [{ i32, void ()*, i8* } { i32 65535, void ()* @_GLOBAL__sub_I_10.cpp, i8* null }]

; Function Attrs: noinline uwtable
define internal void @__cxx_global_var_init() #0 section ".text.startup" {
  call void @_ZNSt8ios_base4InitC1Ev(%"class.std::ios_base::Init"* @_ZStL8__ioinit)
  %1 = call i32 @__cxa_atexit(void (i8*)* bitcast (void (%"class.std::ios_base::Init"*)* @_ZNSt8ios_base4InitD1Ev to void (i8*)*), i8* getelementptr inbounds (%"class.std::ios_base::Init", %"class.std::ios_base::Init"* @_ZStL8__ioinit, i32 0, i32 0), i8* @__dso_handle) #3
  ret void
}

declare dso_local void @_ZNSt8ios_base4InitC1Ev(%"class.std::ios_base::Init"*) unnamed_addr #1

; Function Attrs: nounwind
declare dso_local void @_ZNSt8ios_base4InitD1Ev(%"class.std::ios_base::Init"*) unnamed_addr #2

; Function Attrs: nounwind
declare dso_local i32 @__cxa_atexit(void (i8*)*, i8*, i8*) #3

; Function Attrs: noinline norecurse uwtable
define dso_local i32 @main() #4 {
  %1 = alloca i32, align 4
  %2 = alloca i32, align 4
  %3 = alloca i32, align 4
  %4 = alloca i32, align 4
  %5 = alloca i32, align 4
  %6 = alloca i32, align 4
  %7 = alloca [6 x i32], align 16
  %8 = alloca [6 x i32], align 16
  store i32 0, i32* %1, align 4
  store i32 1, i32* %2, align 4
  br label %9

9:                                                ; preds = %175, %0
  %10 = load i32, i32* %2, align 4
  %11 = icmp sle i32 %10, 5
  br i1 %11, label %12, label %178

12:                                               ; preds = %9
  store i32 1, i32* %3, align 4
  br label %13

13:                                               ; preds = %171, %12
  %14 = load i32, i32* %3, align 4
  %15 = icmp sle i32 %14, 5
  br i1 %15, label %16, label %174

16:                                               ; preds = %13
  %17 = load i32, i32* %2, align 4
  %18 = load i32, i32* %3, align 4
  %19 = icmp eq i32 %17, %18
  br i1 %19, label %20, label %21

20:                                               ; preds = %16
  br label %171

21:                                               ; preds = %16
  store i32 1, i32* %4, align 4
  br label %22

22:                                               ; preds = %167, %21
  %23 = load i32, i32* %4, align 4
  %24 = icmp sle i32 %23, 5
  br i1 %24, label %25, label %170

25:                                               ; preds = %22
  %26 = load i32, i32* %4, align 4
  %27 = load i32, i32* %2, align 4
  %28 = icmp eq i32 %26, %27
  br i1 %28, label %37, label %29

29:                                               ; preds = %25
  %30 = load i32, i32* %4, align 4
  %31 = load i32, i32* %3, align 4
  %32 = icmp eq i32 %30, %31
  br i1 %32, label %37, label %33

33:                                               ; preds = %29
  %34 = load i32, i32* %2, align 4
  %35 = load i32, i32* %3, align 4
  %36 = icmp eq i32 %34, %35
  br i1 %36, label %37, label %38

37:                                               ; preds = %33, %29, %25
  br label %167

38:                                               ; preds = %33
  store i32 1, i32* %5, align 4
  br label %39

39:                                               ; preds = %163, %38
  %40 = load i32, i32* %5, align 4
  %41 = icmp sle i32 %40, 5
  br i1 %41, label %42, label %166

42:                                               ; preds = %39
  %43 = load i32, i32* %5, align 4
  %44 = load i32, i32* %2, align 4
  %45 = icmp eq i32 %43, %44
  br i1 %45, label %66, label %46

46:                                               ; preds = %42
  %47 = load i32, i32* %5, align 4
  %48 = load i32, i32* %3, align 4
  %49 = icmp eq i32 %47, %48
  br i1 %49, label %66, label %50

50:                                               ; preds = %46
  %51 = load i32, i32* %5, align 4
  %52 = load i32, i32* %4, align 4
  %53 = icmp eq i32 %51, %52
  br i1 %53, label %66, label %54

54:                                               ; preds = %50
  %55 = load i32, i32* %4, align 4
  %56 = load i32, i32* %2, align 4
  %57 = icmp eq i32 %55, %56
  br i1 %57, label %66, label %58

58:                                               ; preds = %54
  %59 = load i32, i32* %4, align 4
  %60 = load i32, i32* %3, align 4
  %61 = icmp eq i32 %59, %60
  br i1 %61, label %66, label %62

62:                                               ; preds = %58
  %63 = load i32, i32* %2, align 4
  %64 = load i32, i32* %3, align 4
  %65 = icmp eq i32 %63, %64
  br i1 %65, label %66, label %67

66:                                               ; preds = %62, %58, %54, %50, %46, %42
  br label %163

67:                                               ; preds = %62
  %68 = load i32, i32* %2, align 4
  %69 = sub nsw i32 15, %68
  %70 = load i32, i32* %3, align 4
  %71 = sub nsw i32 %69, %70
  %72 = load i32, i32* %4, align 4
  %73 = sub nsw i32 %71, %72
  %74 = load i32, i32* %5, align 4
  %75 = sub nsw i32 %73, %74
  store i32 %75, i32* %6, align 4
  %76 = load i32, i32* %6, align 4
  %77 = icmp eq i32 %76, 2
  br i1 %77, label %81, label %78

78:                                               ; preds = %67
  %79 = load i32, i32* %6, align 4
  %80 = icmp eq i32 %79, 3
  br i1 %80, label %81, label %82

81:                                               ; preds = %78, %67
  br label %163

82:                                               ; preds = %78
  %83 = load i32, i32* %6, align 4
  %84 = icmp eq i32 %83, 1
  %85 = zext i1 %84 to i32
  %86 = getelementptr inbounds [6 x i32], [6 x i32]* %7, i64 0, i64 1
  store i32 %85, i32* %86, align 4
  %87 = load i32, i32* %3, align 4
  %88 = icmp eq i32 %87, 2
  %89 = zext i1 %88 to i32
  %90 = getelementptr inbounds [6 x i32], [6 x i32]* %7, i64 0, i64 2
  store i32 %89, i32* %90, align 8
  %91 = load i32, i32* %2, align 4
  %92 = icmp eq i32 %91, 5
  %93 = zext i1 %92 to i32
  %94 = getelementptr inbounds [6 x i32], [6 x i32]* %7, i64 0, i64 3
  store i32 %93, i32* %94, align 4
  %95 = load i32, i32* %4, align 4
  %96 = icmp ne i32 %95, 1
  %97 = zext i1 %96 to i32
  %98 = getelementptr inbounds [6 x i32], [6 x i32]* %7, i64 0, i64 4
  store i32 %97, i32* %98, align 16
  %99 = load i32, i32* %5, align 4
  %100 = icmp eq i32 %99, 1
  %101 = zext i1 %100 to i32
  %102 = getelementptr inbounds [6 x i32], [6 x i32]* %7, i64 0, i64 5
  store i32 %101, i32* %102, align 4
  %103 = getelementptr inbounds [6 x i32], [6 x i32]* %7, i64 0, i64 1
  %104 = load i32, i32* %103, align 4
  %105 = load i32, i32* %2, align 4
  %106 = sext i32 %105 to i64
  %107 = getelementptr inbounds [6 x i32], [6 x i32]* %8, i64 0, i64 %106
  store i32 %104, i32* %107, align 4
  %108 = getelementptr inbounds [6 x i32], [6 x i32]* %7, i64 0, i64 2
  %109 = load i32, i32* %108, align 8
  %110 = load i32, i32* %3, align 4
  %111 = sext i32 %110 to i64
  %112 = getelementptr inbounds [6 x i32], [6 x i32]* %8, i64 0, i64 %111
  store i32 %109, i32* %112, align 4
  %113 = getelementptr inbounds [6 x i32], [6 x i32]* %7, i64 0, i64 3
  %114 = load i32, i32* %113, align 4
  %115 = load i32, i32* %4, align 4
  %116 = sext i32 %115 to i64
  %117 = getelementptr inbounds [6 x i32], [6 x i32]* %8, i64 0, i64 %116
  store i32 %114, i32* %117, align 4
  %118 = getelementptr inbounds [6 x i32], [6 x i32]* %7, i64 0, i64 4
  %119 = load i32, i32* %118, align 16
  %120 = load i32, i32* %5, align 4
  %121 = sext i32 %120 to i64
  %122 = getelementptr inbounds [6 x i32], [6 x i32]* %8, i64 0, i64 %121
  store i32 %119, i32* %122, align 4
  %123 = getelementptr inbounds [6 x i32], [6 x i32]* %7, i64 0, i64 5
  %124 = load i32, i32* %123, align 4
  %125 = load i32, i32* %6, align 4
  %126 = sext i32 %125 to i64
  %127 = getelementptr inbounds [6 x i32], [6 x i32]* %8, i64 0, i64 %126
  store i32 %124, i32* %127, align 4
  %128 = getelementptr inbounds [6 x i32], [6 x i32]* %8, i64 0, i64 1
  %129 = load i32, i32* %128, align 4
  %130 = icmp eq i32 %129, 1
  br i1 %130, label %131, label %162

131:                                              ; preds = %82
  %132 = getelementptr inbounds [6 x i32], [6 x i32]* %8, i64 0, i64 2
  %133 = load i32, i32* %132, align 8
  %134 = icmp eq i32 %133, 1
  br i1 %134, label %135, label %162

135:                                              ; preds = %131
  %136 = getelementptr inbounds [6 x i32], [6 x i32]* %8, i64 0, i64 3
  %137 = load i32, i32* %136, align 4
  %138 = icmp eq i32 %137, 0
  br i1 %138, label %139, label %162

139:                                              ; preds = %135
  %140 = getelementptr inbounds [6 x i32], [6 x i32]* %8, i64 0, i64 4
  %141 = load i32, i32* %140, align 16
  %142 = icmp eq i32 %141, 0
  br i1 %142, label %143, label %162

143:                                              ; preds = %139
  %144 = getelementptr inbounds [6 x i32], [6 x i32]* %8, i64 0, i64 5
  %145 = load i32, i32* %144, align 4
  %146 = icmp eq i32 %145, 0
  br i1 %146, label %147, label %162

147:                                              ; preds = %143
  %148 = load i32, i32* %2, align 4
  %149 = call dereferenceable(272) %"class.std::basic_ostream"* @_ZNSolsEi(%"class.std::basic_ostream"* @_ZSt4cout, i32 %148)
  %150 = call dereferenceable(272) %"class.std::basic_ostream"* @_ZStlsISt11char_traitsIcEERSt13basic_ostreamIcT_ES5_PKc(%"class.std::basic_ostream"* dereferenceable(272) %149, i8* getelementptr inbounds ([2 x i8], [2 x i8]* @.str, i64 0, i64 0))
  %151 = load i32, i32* %3, align 4
  %152 = call dereferenceable(272) %"class.std::basic_ostream"* @_ZNSolsEi(%"class.std::basic_ostream"* %150, i32 %151)
  %153 = call dereferenceable(272) %"class.std::basic_ostream"* @_ZStlsISt11char_traitsIcEERSt13basic_ostreamIcT_ES5_PKc(%"class.std::basic_ostream"* dereferenceable(272) %152, i8* getelementptr inbounds ([2 x i8], [2 x i8]* @.str, i64 0, i64 0))
  %154 = load i32, i32* %4, align 4
  %155 = call dereferenceable(272) %"class.std::basic_ostream"* @_ZNSolsEi(%"class.std::basic_ostream"* %153, i32 %154)
  %156 = call dereferenceable(272) %"class.std::basic_ostream"* @_ZStlsISt11char_traitsIcEERSt13basic_ostreamIcT_ES5_PKc(%"class.std::basic_ostream"* dereferenceable(272) %155, i8* getelementptr inbounds ([2 x i8], [2 x i8]* @.str, i64 0, i64 0))
  %157 = load i32, i32* %5, align 4
  %158 = call dereferenceable(272) %"class.std::basic_ostream"* @_ZNSolsEi(%"class.std::basic_ostream"* %156, i32 %157)
  %159 = call dereferenceable(272) %"class.std::basic_ostream"* @_ZStlsISt11char_traitsIcEERSt13basic_ostreamIcT_ES5_PKc(%"class.std::basic_ostream"* dereferenceable(272) %158, i8* getelementptr inbounds ([2 x i8], [2 x i8]* @.str, i64 0, i64 0))
  %160 = load i32, i32* %6, align 4
  %161 = call dereferenceable(272) %"class.std::basic_ostream"* @_ZNSolsEi(%"class.std::basic_ostream"* %159, i32 %160)
  br label %162

162:                                              ; preds = %147, %143, %139, %135, %131, %82
  br label %163

163:                                              ; preds = %162, %81, %66
  %164 = load i32, i32* %5, align 4
  %165 = add nsw i32 %164, 1
  store i32 %165, i32* %5, align 4
  br label %39

166:                                              ; preds = %39
  br label %167

167:                                              ; preds = %166, %37
  %168 = load i32, i32* %4, align 4
  %169 = add nsw i32 %168, 1
  store i32 %169, i32* %4, align 4
  br label %22

170:                                              ; preds = %22
  br label %171

171:                                              ; preds = %170, %20
  %172 = load i32, i32* %3, align 4
  %173 = add nsw i32 %172, 1
  store i32 %173, i32* %3, align 4
  br label %13

174:                                              ; preds = %13
  br label %175

175:                                              ; preds = %174
  %176 = load i32, i32* %2, align 4
  %177 = add nsw i32 %176, 1
  store i32 %177, i32* %2, align 4
  br label %9

178:                                              ; preds = %9
  ret i32 0
}

declare dso_local dereferenceable(272) %"class.std::basic_ostream"* @_ZStlsISt11char_traitsIcEERSt13basic_ostreamIcT_ES5_PKc(%"class.std::basic_ostream"* dereferenceable(272), i8*) #1

declare dso_local dereferenceable(272) %"class.std::basic_ostream"* @_ZNSolsEi(%"class.std::basic_ostream"*, i32) #1

; Function Attrs: noinline uwtable
define internal void @_GLOBAL__sub_I_10.cpp() #0 section ".text.startup" {
  call void @__cxx_global_var_init()
  ret void
}


!llvm.module.flags = !{!0}
!llvm.ident = !{!1}

!0 = !{i32 1, !"wchar_size", i32 4}
!1 = !{!"clang version 10.0.0-4ubuntu1 "}
